; Function Attrs: nounwind sspstrong uwtable
define dso_local i64 @rb_complex_raw(i64 noundef %0, i64 noundef %1) local_unnamed_addr #0 {
  %3 = load i64, ptr @rb_cComplex, align 8, !tbaa !11
  %4 = tail call align 8 ptr @llvm.threadlocal.address.p0(ptr align 8 @ruby_current_ec)
  %5 = load ptr, ptr %4, align 8, !tbaa !27
  %6 = tail call i64 @rb_wb_protected_newobj_of(ptr noundef %5, i64 noundef %3, i64 noundef 14, i64 noundef 32) #17
  %7 = inttoptr i64 %6 to ptr
  %8 = getelementptr inbounds nuw i8, ptr %7, i64 16
  store i64 %0, ptr %8, align 8, !tbaa !11
  %9 = icmp eq i64 %0, 0
  %10 = and i64 %0, 7
  %11 = icmp ne i64 %10, 0
  %12 = or i1 %9, %11
  br i1 %12, label %rb_obj_write.exit.i, label %13

13:                                               ; preds = %2
  tail call void @rb_gc_writebarrier(i64 noundef %6, i64 noundef %0) #17
  br label %rb_obj_write.exit.i

rb_obj_write.exit.i:                              ; preds = %13, %2
  %14 = getelementptr inbounds nuw i8, ptr %7, i64 24
  store i64 %1, ptr %14, align 8, !tbaa !11
  %15 = icmp eq i64 %1, 0
  %16 = and i64 %1, 7
  %17 = icmp ne i64 %16, 0
  %18 = or i1 %15, %17
  br i1 %18, label %nucomp_s_new_internal.exit, label %19

19:                                               ; preds = %rb_obj_write.exit.i
  tail call void @rb_gc_writebarrier(i64 noundef %6, i64 noundef %1) #17
  br label %nucomp_s_new_internal.exit

nucomp_s_new_internal.exit:                       ; preds = %rb_obj_write.exit.i, %19
  tail call void @rb_obj_freeze_inline(i64 noundef %6) #17
  ret i64 %6
}